target datalayout = "e-m:e-p270:32:32-p271:32:32-p272:64:64-i64:64-i128:128-f80:128-n8:16:32:64-S128"
target triple = "x86_64-pc-linux-gnu"

%struct.OSSL_TIME = type { i64 }
%struct.CRYPTO_REF_COUNT = type { i32 }
%struct.crypto_ex_data_st = type { ptr, ptr }
%struct.srp_ctx_st = type { ptr, ptr, ptr, ptr, ptr, ptr, ptr, ptr, ptr, ptr, ptr, ptr, ptr, ptr, i32, i64 }
%struct.ssl_ctx_st = type { ptr, ptr, ptr, ptr, ptr, ptr, ptr, i64, ptr, ptr, i32, %struct.OSSL_TIME, ptr, ptr, ptr, %struct.anon.3, %struct.CRYPTO_REF_COUNT, ptr, ptr, ptr, ptr, ptr, ptr, ptr, ptr, ptr, %struct.crypto_ex_data_st, ptr, ptr, ptr, ptr, ptr, ptr, ptr, i64, i32, i32, i32, i64, ptr, ptr, i32, ptr, ptr, i32, i64, [32 x i8], ptr, ptr, ptr, i32, ptr, ptr, ptr, i64, i64, i64, i64, ptr, ptr, ptr, ptr, ptr, %struct.anon.4, ptr, ptr, ptr, ptr, %struct.srp_ctx_st, %struct.dane_ctx_st, ptr, ptr, ptr, ptr, i32, i32, ptr, ptr, i64, i64, ptr, ptr, ptr, i64, ptr, ptr, i32, ptr, ptr, ptr, [14 x i32], [24 x ptr], [14 x ptr], [14 x i64], i64, ptr, ptr, ptr, i64, i64, ptr, i64, i64, i32, i32, i32, i32, ptr, i64, ptr, i64, i64, ptr, ptr }
%struct.anon.3 = type { i32, i32, i32, i32, i32, i32, i32, i32, i32, i32, i32 }
%struct.anon.4 = type { ptr, ptr, [16 x i8], ptr, ptr, ptr, ptr, ptr, i32, i8, i64, ptr, i64, ptr, i64, ptr, i64, ptr, ptr, i64, ptr, ptr, ptr, i64, ptr, ptr, ptr, ptr, [32 x i8] }
%struct.dane_ctx_st = type { ptr, ptr, i8, i64 }

@.str.2 = private unnamed_addr constant [24 x i8] c"../openssl/ssl/t1_lib.c\00", align 1
@__func__.SSL_CTX_set_tlsext_max_fragment_length = private unnamed_addr constant [39 x i8] c"SSL_CTX_set_tlsext_max_fragment_length\00", align 1

; Function Attrs: nounwind uwtable
define i32 @SSL_CTX_set_tlsext_max_fragment_length(ptr noundef %0, i8 noundef zeroext %1) #1 {
  %3 = alloca i32, align 4
  %4 = alloca ptr, align 8
  %5 = alloca i8, align 1
  store ptr %0, ptr %4, align 8, !tbaa !80
  store i8 %1, ptr %5, align 1, !tbaa !161
  %6 = load i8, ptr %5, align 1, !tbaa !161
  %7 = zext i8 %6 to i32
  %8 = icmp ne i32 %7, 0
  br i1 %8, label %9, label %18

9:                                                ; preds = %2
  %10 = load i8, ptr %5, align 1, !tbaa !161
  %11 = zext i8 %10 to i32
  %12 = icmp sge i32 %11, 1
  br i1 %12, label %13, label %17

13:                                               ; preds = %9
  %14 = load i8, ptr %5, align 1, !tbaa !161
  %15 = zext i8 %14 to i32
  %16 = icmp sle i32 %15, 4
  br i1 %16, label %18, label %17

17:                                               ; preds = %13, %9
  call void @ERR_new()
  call void @ERR_set_debug(ptr noundef @.str.2, i32 noundef 4606, ptr noundef @__func__.SSL_CTX_set_tlsext_max_fragment_length)
  call void (i32, i32, ptr, ...) @ERR_set_error(i32 noundef 20, i32 noundef 232, ptr noundef null)
  store i32 0, ptr %3, align 4
  br label %23

18:                                               ; preds = %13, %2
  %19 = load i8, ptr %5, align 1, !tbaa !161
  %20 = load ptr, ptr %4, align 8, !tbaa !80
  %21 = getelementptr inbounds nuw %struct.ssl_ctx_st, ptr %20, i32 0, i32 63
  %22 = getelementptr inbounds nuw %struct.anon.4, ptr %21, i32 0, i32 9
  store i8 %19, ptr %22, align 4, !tbaa !365
  store i32 1, ptr %3, align 4
  br label %23

23:                                               ; preds = %18, %17
  %24 = load i32, ptr %3, align 4
  ret i32 %24
}