; Function Attrs: nounwind uwtable
define range(i32 0, 2) i32 @SSL_CTX_set_tlsext_max_fragment_length(ptr noundef writeonly captures(none) %0, i8 noundef zeroext %1) local_unnamed_addr #2 {
  %switch = icmp ult i8 %1, 5
  br i1 %switch, label %4, label %3

3:                                                ; preds = %2
  tail call void @ERR_new() #14
  tail call void @ERR_set_debug(ptr noundef nonnull @.str.2, i32 noundef 4606, ptr noundef nonnull @__func__.SSL_CTX_set_tlsext_max_fragment_length) #14
  tail call void (i32, i32, ptr, ...) @ERR_set_error(i32 noundef 20, i32 noundef 232, ptr noundef null) #14
  br label %6

4:                                                ; preds = %2
  %5 = getelementptr inbounds nuw i8, ptr %0, i64 636
  store i8 %1, ptr %5, align 4, !tbaa !305
  br label %6

6:                                                ; preds = %4, %3
  %.0 = phi i32 [ 1, %4 ], [ 0, %3 ]
  ret i32 %.0
}